target datalayout = "e-m:e-p270:32:32-p271:32:32-p272:64:64-i64:64-i128:128-f80:128-n8:16:32:64-S128"
target triple = "x86_64-pc-linux-gnu"

%struct.pg_tm = type { i32, i32, i32, i32, i32, i32, i32, i32, i32, i64, ptr }
%struct.FunctionCallInfoBaseData = type { ptr, ptr, ptr, i32, i8, i16, [0 x %struct.NullableDatum] }
%struct.NullableDatum = type { i64, i8 }
%struct.fmt_tz = type { i8, i32 }

@.str.3 = private unnamed_addr constant [13 x i8] c"formatting.c\00", align 1
@.str.7 = private unnamed_addr constant [23 x i8] c"timestamp out of range\00", align 1
@session_timezone = external global ptr, align 8
@__func__.to_timestamp = private unnamed_addr constant [13 x i8] c"to_timestamp\00", align 1

; Function Attrs: inlinehint nounwind uwtable
define internal i64 @Int64GetDatum(i64 noundef %0) #4 {
  %2 = alloca i64, align 8
  store i64 %0, ptr %2, align 8
  %3 = load i64, ptr %2, align 8
  ret i64 %3
}

; Function Attrs: inlinehint nounwind uwtable
define internal i64 @TimestampGetDatum(i64 noundef %0) #4 {
  %2 = alloca i64, align 8
  store i64 %0, ptr %2, align 8
  %3 = load i64, ptr %2, align 8
  %4 = call i64 @Int64GetDatum(i64 noundef %3)
  ret i64 %4
}

; Function Attrs: inlinehint nounwind uwtable
define internal ptr @DatumGetPointer(i64 noundef %0) #4 {
  %2 = alloca i64, align 8
  store i64 %0, ptr %2, align 8
  %3 = load i64, ptr %2, align 8
  %4 = inttoptr i64 %3 to ptr
  ret ptr %4
}

; Function Attrs: nounwind uwtable
define dso_local i64 @to_timestamp(ptr noundef %0) #0 {
  %2 = alloca ptr, align 8
  %3 = alloca ptr, align 8
  %4 = alloca ptr, align 8
  %5 = alloca i32, align 4
  %6 = alloca i64, align 8
  %7 = alloca i32, align 4
  %8 = alloca %struct.pg_tm, align 8
  %9 = alloca %struct.fmt_tz, align 4
  %10 = alloca i32, align 4
  %11 = alloca i32, align 4
  store ptr %0, ptr %2, align 8
  call void @llvm.lifetime.start.p0(i64 8, ptr %3) #11
  %12 = load ptr, ptr %2, align 8
  %13 = getelementptr inbounds nuw %struct.FunctionCallInfoBaseData, ptr %12, i32 0, i32 6
  %14 = getelementptr inbounds [0 x %struct.NullableDatum], ptr %13, i64 0, i64 0
  %15 = getelementptr inbounds nuw %struct.NullableDatum, ptr %14, i32 0, i32 0
  %16 = load i64, ptr %15, align 8
  %17 = call ptr @DatumGetPointer(i64 noundef %16)
  %18 = call ptr @pg_detoast_datum_packed(ptr noundef %17)
  store ptr %18, ptr %3, align 8
  call void @llvm.lifetime.start.p0(i64 8, ptr %4) #11
  %19 = load ptr, ptr %2, align 8
  %20 = getelementptr inbounds nuw %struct.FunctionCallInfoBaseData, ptr %19, i32 0, i32 6
  %21 = getelementptr inbounds [0 x %struct.NullableDatum], ptr %20, i64 0, i64 1
  %22 = getelementptr inbounds nuw %struct.NullableDatum, ptr %21, i32 0, i32 0
  %23 = load i64, ptr %22, align 8
  %24 = call ptr @DatumGetPointer(i64 noundef %23)
  %25 = call ptr @pg_detoast_datum_packed(ptr noundef %24)
  store ptr %25, ptr %4, align 8
  call void @llvm.lifetime.start.p0(i64 4, ptr %5) #11
  %26 = load ptr, ptr %2, align 8
  %27 = getelementptr inbounds nuw %struct.FunctionCallInfoBaseData, ptr %26, i32 0, i32 3
  %28 = load i32, ptr %27, align 8
  store i32 %28, ptr %5, align 4
  call void @llvm.lifetime.start.p0(i64 8, ptr %6) #11
  call void @llvm.lifetime.start.p0(i64 4, ptr %7) #11
  call void @llvm.lifetime.start.p0(i64 56, ptr %8) #11
  call void @llvm.lifetime.start.p0(i64 8, ptr %9) #11
  call void @llvm.lifetime.start.p0(i64 4, ptr %10) #11
  call void @llvm.lifetime.start.p0(i64 4, ptr %11) #11
  %29 = load ptr, ptr %3, align 8
  %30 = load ptr, ptr %4, align 8
  %31 = load i32, ptr %5, align 4
  %32 = call zeroext i1 @do_to_timestamp(ptr noundef %29, ptr noundef %30, i32 noundef %31, i1 noundef zeroext false, ptr noundef %8, ptr noundef %10, ptr noundef %9, ptr noundef %11, ptr noundef null, ptr noundef null)
  %33 = getelementptr inbounds nuw %struct.fmt_tz, ptr %9, i32 0, i32 0
  %34 = load i8, ptr %33, align 4, !range !4, !noundef !5
  %35 = trunc i8 %34 to i1
  br i1 %35, label %36, label %39

36:                                               ; preds = %1
  %37 = getelementptr inbounds nuw %struct.fmt_tz, ptr %9, i32 0, i32 1
  %38 = load i32, ptr %37, align 4
  store i32 %38, ptr %7, align 4
  br label %42

39:                                               ; preds = %1
  %40 = load ptr, ptr @session_timezone, align 8
  %41 = call i32 @DetermineTimeZoneOffset(ptr noundef %8, ptr noundef %40)
  store i32 %41, ptr %7, align 4
  br label %42

42:                                               ; preds = %39, %36
  %43 = load i32, ptr %10, align 4
  %44 = call i32 @tm2timestamp(ptr noundef %8, i32 noundef %43, ptr noundef %7, ptr noundef %6)
  %45 = icmp ne i32 %44, 0
  br i1 %45, label %46, label %58

46:                                               ; preds = %42
  br label %47

47:                                               ; preds = %46
  br i1 true, label %48, label %50

48:                                               ; preds = %47
  %49 = call zeroext i1 @errstart_cold(i32 noundef 21, ptr noundef null) #12
  br i1 %49, label %52, label %55

50:                                               ; preds = %47
  %51 = call zeroext i1 @errstart(i32 noundef 21, ptr noundef null)
  br i1 %51, label %52, label %55

52:                                               ; preds = %50, %48
  %53 = call i32 @errcode(i32 noundef 134217858)
  %54 = call i32 (ptr, ...) @errmsg(ptr noundef @.str.7)
  call void @errfinish(ptr noundef @.str.3, i32 noundef 4139, ptr noundef @__func__.to_timestamp)
  br label %55

55:                                               ; preds = %52, %50, %48
  unreachable

56:                                               ; No predecessors!
  br label %57

57:                                               ; preds = %56
  br label %58

58:                                               ; preds = %57, %42
  %59 = load i32, ptr %11, align 4
  %60 = icmp ne i32 %59, 0
  br i1 %60, label %61, label %64

61:                                               ; preds = %58
  %62 = load i32, ptr %11, align 4
  %63 = call zeroext i1 @AdjustTimestampForTypmod(ptr noundef %6, i32 noundef %62, ptr noundef null)
  br label %64

64:                                               ; preds = %61, %58
  %65 = load i64, ptr %6, align 8
  %66 = call i64 @TimestampGetDatum(i64 noundef %65)
  call void @llvm.lifetime.end.p0(i64 4, ptr %11) #11
  call void @llvm.lifetime.end.p0(i64 4, ptr %10) #11
  call void @llvm.lifetime.end.p0(i64 8, ptr %9) #11
  call void @llvm.lifetime.end.p0(i64 56, ptr %8) #11
  call void @llvm.lifetime.end.p0(i64 4, ptr %7) #11
  call void @llvm.lifetime.end.p0(i64 8, ptr %6) #11
  call void @llvm.lifetime.end.p0(i64 4, ptr %5) #11
  call void @llvm.lifetime.end.p0(i64 8, ptr %4) #11
  call void @llvm.lifetime.end.p0(i64 8, ptr %3) #11
  ret i64 %66
}