; Function Attrs: nounwind uwtable
define dso_local i64 @to_timestamp(ptr noundef readonly captures(none) %0) local_unnamed_addr #0 {
  %2 = alloca i64, align 8
  %3 = alloca i32, align 4
  %4 = alloca %struct.pg_tm, align 8
  %5 = alloca %struct.fmt_tz, align 4
  %6 = alloca i32, align 4
  %7 = alloca i32, align 4
  %8 = getelementptr inbounds nuw i8, ptr %0, i64 32
  %9 = load i64, ptr %8, align 8
  %10 = inttoptr i64 %9 to ptr
  %11 = tail call ptr @pg_detoast_datum_packed(ptr noundef %10) #18
  %12 = getelementptr inbounds nuw i8, ptr %0, i64 48
  %13 = load i64, ptr %12, align 8
  %14 = inttoptr i64 %13 to ptr
  %15 = tail call ptr @pg_detoast_datum_packed(ptr noundef %14) #18
  %16 = getelementptr inbounds nuw i8, ptr %0, i64 24
  %17 = load i32, ptr %16, align 8
  call void @llvm.lifetime.start.p0(i64 8, ptr nonnull %2) #18
  call void @llvm.lifetime.start.p0(i64 4, ptr nonnull %3) #18
  call void @llvm.lifetime.start.p0(i64 56, ptr nonnull %4) #18
  call void @llvm.lifetime.start.p0(i64 8, ptr nonnull %5) #18
  call void @llvm.lifetime.start.p0(i64 4, ptr nonnull %6) #18
  call void @llvm.lifetime.start.p0(i64 4, ptr nonnull %7) #18
  %18 = call fastcc zeroext i1 @do_to_timestamp(ptr noundef %11, ptr noundef %15, i32 noundef %17, i1 noundef zeroext false, ptr noundef %4, ptr noundef %6, ptr noundef %5, ptr noundef nonnull %7, ptr noundef null, ptr noundef null)
  %19 = load i8, ptr %5, align 4, !range !4, !noundef !5
  %20 = trunc nuw i8 %19 to i1
  br i1 %20, label %21, label %24

21:                                               ; preds = %1
  %22 = getelementptr inbounds nuw i8, ptr %5, i64 4
  %23 = load i32, ptr %22, align 4
  br label %27

24:                                               ; preds = %1
  %25 = load ptr, ptr @session_timezone, align 8
  %26 = call i32 @DetermineTimeZoneOffset(ptr noundef nonnull %4, ptr noundef %25) #18
  br label %27

27:                                               ; preds = %24, %21
  %storemerge = phi i32 [ %26, %24 ], [ %23, %21 ]
  store i32 %storemerge, ptr %3, align 4
  %28 = load i32, ptr %6, align 4
  %29 = call i32 @tm2timestamp(ptr noundef nonnull %4, i32 noundef %28, ptr noundef nonnull %3, ptr noundef nonnull %2) #18
  %.not = icmp eq i32 %29, 0
  br i1 %.not, label %34, label %30

30:                                               ; preds = %27
  %31 = call zeroext i1 @errstart_cold(i32 noundef 21, ptr noundef null) #17
  call void @llvm.assume(i1 %31)
  %32 = call i32 @errcode(i32 noundef 134217858) #18
  %33 = call i32 (ptr, ...) @errmsg(ptr noundef nonnull @.str.7) #18
  call void @errfinish(ptr noundef nonnull @.str.3, i32 noundef 4139, ptr noundef nonnull @__func__.to_timestamp) #18
  unreachable

34:                                               ; preds = %27
  %35 = load i32, ptr %7, align 4
  %.not5 = icmp eq i32 %35, 0
  br i1 %.not5, label %38, label %36

36:                                               ; preds = %34
  %37 = call zeroext i1 @AdjustTimestampForTypmod(ptr noundef nonnull %2, i32 noundef %35, ptr noundef null) #18
  br label %38

38:                                               ; preds = %36, %34
  %39 = load i64, ptr %2, align 8
  call void @llvm.lifetime.end.p0(i64 4, ptr nonnull %7) #18
  call void @llvm.lifetime.end.p0(i64 4, ptr nonnull %6) #18
  call void @llvm.lifetime.end.p0(i64 8, ptr nonnull %5) #18
  call void @llvm.lifetime.end.p0(i64 56, ptr nonnull %4) #18
  call void @llvm.lifetime.end.p0(i64 4, ptr nonnull %3) #18
  call void @llvm.lifetime.end.p0(i64 8, ptr nonnull %2) #18
  ret i64 %39
}